(lp0
(iMovie
Movie
p1
(dp2
S'rating'
p3
I-1
sS'title'
p4
S'mov'
p5
sS'actors'
p6
(lp7
sS'year'
p8
S''
p9
sS'genre'
p10
g9
sS'id'
p11
I1043925
sba(iMovie
Movie
p12
(dp13
g3
I-1
sg4
S'mov'
p14
sg6
(lp15
sg8
g9
sg10
g9
sg11
I1043926
sba(iMovie
Movie
p16
(dp17
g3
I-1
sg4
S'mov'
p18
sg6
(lp19
sg8
g9
sg10
g9
sg11
I1043927
sba.